; ModuleID = '2695.c'
source_filename = "2695.c"
target datalayout = "e-m:e-p270:32:32-p271:32:32-p272:64:64-i64:64-f80:128-n8:16:32:64-S128"
target triple = "x86_64-pc-linux-gnu"

@.str = private unnamed_addr constant [3 x i8] c"%d\00", align 1
@.str.1 = private unnamed_addr constant [25 x i8] c"Input a illegal number.\0A\00", align 1

; Function Attrs: noinline nounwind uwtable
define dso_local i32 @unrelatedNumber(i32 %0, i32 %1) #0 {
  %3 = alloca i32, align 4
  %4 = alloca i32, align 4
  %5 = alloca i32, align 4
  store i32 %0, i32* %4, align 4
  store i32 %1, i32* %5, align 4
  %6 = load i32, i32* %4, align 4
  %7 = icmp eq i32 %6, 0
  br i1 %7, label %8, label %10

8:                                                ; preds = %2
  %9 = load i32, i32* %5, align 4
  store i32 %9, i32* %3, align 4
  br label %36

10:                                               ; preds = %2
  %11 = load i32, i32* %4, align 4
  %12 = srem i32 %11, 7
  %13 = icmp eq i32 %12, 0
  br i1 %13, label %22, label %14

14:                                               ; preds = %10
  %15 = load i32, i32* %4, align 4
  %16 = srem i32 %15, 10
  %17 = icmp eq i32 %16, 7
  br i1 %17, label %22, label %18

18:                                               ; preds = %14
  %19 = load i32, i32* %4, align 4
  %20 = sdiv i32 %19, 10
  %21 = icmp eq i32 %20, 7
  br i1 %21, label %22, label %27

22:                                               ; preds = %18, %14, %10
  %23 = load i32, i32* %4, align 4
  %24 = sub nsw i32 %23, 1
  %25 = load i32, i32* %5, align 4
  %26 = call i32 @unrelatedNumber(i32 %24, i32 %25)
  store i32 %26, i32* %3, align 4
  br label %36

27:                                               ; preds = %18
  %28 = load i32, i32* %4, align 4
  %29 = sub nsw i32 %28, 1
  %30 = load i32, i32* %5, align 4
  %31 = load i32, i32* %4, align 4
  %32 = load i32, i32* %4, align 4
  %33 = mul nsw i32 %31, %32
  %34 = add nsw i32 %30, %33
  %35 = call i32 @unrelatedNumber(i32 %29, i32 %34)
  store i32 %35, i32* %3, align 4
  br label %36

36:                                               ; preds = %27, %22, %8
  %37 = load i32, i32* %3, align 4
  ret i32 %37
}

; Function Attrs: noinline nounwind uwtable
define dso_local i32 @main(i32 %0, i8** %1) #0 {
  %3 = alloca i32, align 4
  %4 = alloca i32, align 4
  %5 = alloca i8**, align 8
  %6 = alloca i32, align 4
  %7 = alloca i32, align 4
  store i32 0, i32* %3, align 4
  store i32 %0, i32* %4, align 4
  store i8** %1, i8*** %5, align 8
  store i32 0, i32* %7, align 4
  %8 = call i32 (i8*, ...) @__isoc99_scanf(i8* getelementptr inbounds ([3 x i8], [3 x i8]* @.str, i64 0, i64 0), i32* %6)
  %9 = load i32, i32* %6, align 4
  %10 = icmp sge i32 %9, 100
  br i1 %10, label %14, label %11

11:                                               ; preds = %2
  %12 = load i32, i32* %6, align 4
  %13 = icmp sle i32 %12, 0
  br i1 %13, label %14, label %16

14:                                               ; preds = %11, %2
  %15 = call i32 (i8*, ...) @printf(i8* getelementptr inbounds ([25 x i8], [25 x i8]* @.str.1, i64 0, i64 0))
  store i32 -1, i32* %3, align 4
  br label %21

16:                                               ; preds = %11
  %17 = load i32, i32* %6, align 4
  %18 = load i32, i32* %7, align 4
  %19 = call i32 @unrelatedNumber(i32 %17, i32 %18)
  %20 = call i32 (i8*, ...) @printf(i8* getelementptr inbounds ([3 x i8], [3 x i8]* @.str, i64 0, i64 0), i32 %19)
  store i32 0, i32* %3, align 4
  br label %21

21:                                               ; preds = %16, %14
  %22 = load i32, i32* %3, align 4
  ret i32 %22
}

declare dso_local i32 @__isoc99_scanf(i8*, ...) #1

declare dso_local i32 @printf(i8*, ...) #1


!llvm.module.flags = !{!0}
!llvm.ident = !{!1}

!0 = !{i32 1, !"wchar_size", i32 4}
!1 = !{!"clang version 10.0.0-4ubuntu1 "}
